(dp0
S'test.ini'
p1
(lp2
S'cdctools.pyc = 4549\n'
p3
aS'cdctools.py = 4254\n'
p4
aS'cdctools-v0.8.py = 3398\n'
p5
aS'cdctools.pyc = 3675\n'
p6
aS'cdctools.py = 4138\n'
p7
aS'cdctools.cdc = 188014\n'
p8
aS'toc-cdctools-module.html = 1608\n'
p9
aS'cdctools-module.html = 14910\n'
p10
aS'cdctools-pysrc.html = 31567\n'
p11
asS'try.ini'
p12
(lp13
S'cdctools.pyc = 4536\n'
p14
aS'cdctools.py = 4241\n'
p15
aS'cdctools-v0.8.py = 3398\n'
p16
aS'cdctools.pyc = 3675\n'
p17
aS'cdctools.py = 5906\n'
p18
aS'cdctools-v0.8.py = 4219\n'
p19
aS'cdctools.cdc = 188172\n'
p20
aS'toc-cdctools-module.html = 1608\n'
p21
aS'cdctools-module.html = 14910\n'
p22
aS'cdctools-pysrc.html = 31567\n'
p23
asS'py.ini'
p24
(lp25
S'cdctools.pyc = 3847\n'
p26
aS'cdctools.py = 3540\n'
p27
aS'cdctools.pyc = 3675\n'
p28
aS'cdctools.py = 3540\n'
p29
aS'cdctools.cdc = 65273\n'
p30
aS'toc-cdctools-module.html = 1608\n'
p31
aS'cdctools-module.html = 14910\n'
p32
aS'cdctools-pysrc.html = 31567\n'
p33
as.